target datalayout = "e-m:e-p270:32:32-p271:32:32-p272:64:64-i64:64-i128:128-f80:128-n8:16:32:64-S128"
target triple = "x86_64-pc-linux-gnu"

%struct.AfterTriggersData = type { i32, ptr, %struct.AfterTriggerEventList, ptr, ptr, i32, i32, ptr, i32 }
%struct.AfterTriggerEventList = type { ptr, ptr, ptr }
%struct.ForEachState = type { ptr, i32 }
%struct.List = type { i32, i32, i32, ptr, [0 x %union.ListCell] }
%union.ListCell = type { ptr }
%struct.AfterTriggersTableData = type { i32, i32, i8, i8, i8, %struct.AfterTriggerEventList, ptr, ptr, ptr, ptr, ptr }
%struct.AfterTriggersQueryData = type { %struct.AfterTriggerEventList, ptr, ptr }

@.str.2 = private unnamed_addr constant [10 x i8] c"trigger.c\00", align 1
@CurrentMemoryContext = external global ptr, align 8
@afterTriggers = internal global %struct.AfterTriggersData zeroinitializer, align 8
@CurTransactionContext = external global ptr, align 8
@TopTransactionContext = external global ptr, align 8
@.str.91 = private unnamed_addr constant [53 x i8] c"before_stmt_triggers_fired() called outside of query\00", align 1
@__func__.before_stmt_triggers_fired = private unnamed_addr constant [27 x i8] c"before_stmt_triggers_fired\00", align 1

; Function Attrs: inlinehint nounwind uwtable
define internal ptr @MemoryContextSwitchTo(ptr noundef %0) #7 {
  %2 = alloca ptr, align 8
  %3 = alloca ptr, align 8
  store ptr %0, ptr %2, align 8
  call void @llvm.lifetime.start.p0(i64 8, ptr %3) #12
  %4 = load ptr, ptr @CurrentMemoryContext, align 8
  store ptr %4, ptr %3, align 8
  %5 = load ptr, ptr %2, align 8
  store ptr %5, ptr @CurrentMemoryContext, align 8
  %6 = load ptr, ptr %3, align 8
  call void @llvm.lifetime.end.p0(i64 8, ptr %3) #12
  ret ptr %6
}

; Function Attrs: nounwind uwtable
define internal ptr @GetAfterTriggersTableData(i32 noundef %0, i32 noundef %1) #0 {
  %3 = alloca ptr, align 8
  %4 = alloca i32, align 4
  %5 = alloca i32, align 4
  %6 = alloca ptr, align 8
  %7 = alloca ptr, align 8
  %8 = alloca ptr, align 8
  %9 = alloca ptr, align 8
  %10 = alloca %struct.ForEachState, align 8
  %11 = alloca i32, align 4
  store i32 %0, ptr %4, align 4
  store i32 %1, ptr %5, align 4
  call void @llvm.lifetime.start.p0(i64 8, ptr %6) #12
  call void @llvm.lifetime.start.p0(i64 8, ptr %7) #12
  call void @llvm.lifetime.start.p0(i64 8, ptr %8) #12
  call void @llvm.lifetime.start.p0(i64 8, ptr %9) #12
  %12 = load ptr, ptr getelementptr inbounds nuw (%struct.AfterTriggersData, ptr @afterTriggers, i32 0, i32 4), align 8
  %13 = load i32, ptr getelementptr inbounds nuw (%struct.AfterTriggersData, ptr @afterTriggers, i32 0, i32 5), align 8
  %14 = sext i32 %13 to i64
  %15 = getelementptr inbounds %struct.AfterTriggersQueryData, ptr %12, i64 %14
  store ptr %15, ptr %7, align 8
  call void @llvm.lifetime.start.p0(i64 16, ptr %10) #12
  %16 = getelementptr inbounds nuw %struct.ForEachState, ptr %10, i32 0, i32 0
  %17 = load ptr, ptr %7, align 8
  %18 = getelementptr inbounds nuw %struct.AfterTriggersQueryData, ptr %17, i32 0, i32 2
  %19 = load ptr, ptr %18, align 8
  store ptr %19, ptr %16, align 8
  %20 = getelementptr inbounds nuw %struct.ForEachState, ptr %10, i32 0, i32 1
  store i32 0, ptr %20, align 8
  %21 = getelementptr i8, ptr %10, i64 12
  call void @llvm.memset.p0.i64(ptr align 4 %21, i8 0, i64 4, i1 false)
  br label %22

22:                                               ; preds = %70, %2
  %23 = getelementptr inbounds nuw %struct.ForEachState, ptr %10, i32 0, i32 0
  %24 = load ptr, ptr %23, align 8
  %25 = icmp ne ptr %24, null
  br i1 %25, label %26, label %43

26:                                               ; preds = %22
  %27 = getelementptr inbounds nuw %struct.ForEachState, ptr %10, i32 0, i32 1
  %28 = load i32, ptr %27, align 8
  %29 = getelementptr inbounds nuw %struct.ForEachState, ptr %10, i32 0, i32 0
  %30 = load ptr, ptr %29, align 8
  %31 = getelementptr inbounds nuw %struct.List, ptr %30, i32 0, i32 1
  %32 = load i32, ptr %31, align 4
  %33 = icmp slt i32 %28, %32
  br i1 %33, label %34, label %43

34:                                               ; preds = %26
  %35 = getelementptr inbounds nuw %struct.ForEachState, ptr %10, i32 0, i32 0
  %36 = load ptr, ptr %35, align 8
  %37 = getelementptr inbounds nuw %struct.List, ptr %36, i32 0, i32 3
  %38 = load ptr, ptr %37, align 8
  %39 = getelementptr inbounds nuw %struct.ForEachState, ptr %10, i32 0, i32 1
  %40 = load i32, ptr %39, align 8
  %41 = sext i32 %40 to i64
  %42 = getelementptr inbounds %union.ListCell, ptr %38, i64 %41
  store ptr %42, ptr %9, align 8
  br label %44

43:                                               ; preds = %26, %22
  store ptr null, ptr %9, align 8
  br label %44

44:                                               ; preds = %43, %34
  %45 = phi i32 [ 1, %34 ], [ 0, %43 ]
  %46 = icmp ne i32 %45, 0
  br i1 %46, label %48, label %47

47:                                               ; preds = %44
  store i32 2, ptr %11, align 4
  br label %74

48:                                               ; preds = %44
  %49 = load ptr, ptr %9, align 8
  %50 = load ptr, ptr %49, align 8
  store ptr %50, ptr %6, align 8
  %51 = load ptr, ptr %6, align 8
  %52 = getelementptr inbounds nuw %struct.AfterTriggersTableData, ptr %51, i32 0, i32 0
  %53 = load i32, ptr %52, align 8
  %54 = load i32, ptr %4, align 4
  %55 = icmp eq i32 %53, %54
  br i1 %55, label %56, label %69

56:                                               ; preds = %48
  %57 = load ptr, ptr %6, align 8
  %58 = getelementptr inbounds nuw %struct.AfterTriggersTableData, ptr %57, i32 0, i32 1
  %59 = load i32, ptr %58, align 4
  %60 = load i32, ptr %5, align 4
  %61 = icmp eq i32 %59, %60
  br i1 %61, label %62, label %69

62:                                               ; preds = %56
  %63 = load ptr, ptr %6, align 8
  %64 = getelementptr inbounds nuw %struct.AfterTriggersTableData, ptr %63, i32 0, i32 2
  %65 = load i8, ptr %64, align 8, !range !4, !noundef !5
  %66 = trunc i8 %65 to i1
  br i1 %66, label %69, label %67

67:                                               ; preds = %62
  %68 = load ptr, ptr %6, align 8
  store ptr %68, ptr %3, align 8
  store i32 1, ptr %11, align 4
  br label %74

69:                                               ; preds = %62, %56, %48
  br label %70

70:                                               ; preds = %69
  %71 = getelementptr inbounds nuw %struct.ForEachState, ptr %10, i32 0, i32 1
  %72 = load i32, ptr %71, align 8
  %73 = add i32 %72, 1
  store i32 %73, ptr %71, align 8
  br label %22, !llvm.loop !44

74:                                               ; preds = %67, %47
  call void @llvm.lifetime.end.p0(i64 16, ptr %10) #12
  %75 = load i32, ptr %11, align 4
  switch i32 %75, label %96 [
    i32 2, label %76
  ]

76:                                               ; preds = %74
  %77 = load ptr, ptr @CurTransactionContext, align 8
  %78 = call ptr @MemoryContextSwitchTo(ptr noundef %77)
  store ptr %78, ptr %8, align 8
  %79 = call ptr @palloc0(i64 noundef 80)
  store ptr %79, ptr %6, align 8
  %80 = load i32, ptr %4, align 4
  %81 = load ptr, ptr %6, align 8
  %82 = getelementptr inbounds nuw %struct.AfterTriggersTableData, ptr %81, i32 0, i32 0
  store i32 %80, ptr %82, align 8
  %83 = load i32, ptr %5, align 4
  %84 = load ptr, ptr %6, align 8
  %85 = getelementptr inbounds nuw %struct.AfterTriggersTableData, ptr %84, i32 0, i32 1
  store i32 %83, ptr %85, align 4
  %86 = load ptr, ptr %7, align 8
  %87 = getelementptr inbounds nuw %struct.AfterTriggersQueryData, ptr %86, i32 0, i32 2
  %88 = load ptr, ptr %87, align 8
  %89 = load ptr, ptr %6, align 8
  %90 = call ptr @lappend(ptr noundef %88, ptr noundef %89)
  %91 = load ptr, ptr %7, align 8
  %92 = getelementptr inbounds nuw %struct.AfterTriggersQueryData, ptr %91, i32 0, i32 2
  store ptr %90, ptr %92, align 8
  %93 = load ptr, ptr %8, align 8
  %94 = call ptr @MemoryContextSwitchTo(ptr noundef %93)
  %95 = load ptr, ptr %6, align 8
  store ptr %95, ptr %3, align 8
  store i32 1, ptr %11, align 4
  br label %96

96:                                               ; preds = %76, %74
  call void @llvm.lifetime.end.p0(i64 8, ptr %9) #12
  call void @llvm.lifetime.end.p0(i64 8, ptr %8) #12
  call void @llvm.lifetime.end.p0(i64 8, ptr %7) #12
  call void @llvm.lifetime.end.p0(i64 8, ptr %6) #12
  %97 = load ptr, ptr %3, align 8
  ret ptr %97
}

; Function Attrs: nounwind uwtable
define internal void @AfterTriggerEnlargeQueryState() #0 {
  %1 = alloca i32, align 4
  %2 = alloca i32, align 4
  %3 = alloca i32, align 4
  %4 = alloca i32, align 4
  %5 = alloca ptr, align 8
  call void @llvm.lifetime.start.p0(i64 4, ptr %1) #12
  %6 = load i32, ptr getelementptr inbounds nuw (%struct.AfterTriggersData, ptr @afterTriggers, i32 0, i32 6), align 4
  store i32 %6, ptr %1, align 4
  %7 = load i32, ptr getelementptr inbounds nuw (%struct.AfterTriggersData, ptr @afterTriggers, i32 0, i32 6), align 4
  %8 = icmp eq i32 %7, 0
  br i1 %8, label %9, label %25

9:                                                ; preds = %0
  call void @llvm.lifetime.start.p0(i64 4, ptr %2) #12
  %10 = load i32, ptr getelementptr inbounds nuw (%struct.AfterTriggersData, ptr @afterTriggers, i32 0, i32 5), align 8
  %11 = add i32 %10, 1
  %12 = icmp sgt i32 %11, 8
  br i1 %12, label %13, label %16

13:                                               ; preds = %9
  %14 = load i32, ptr getelementptr inbounds nuw (%struct.AfterTriggersData, ptr @afterTriggers, i32 0, i32 5), align 8
  %15 = add i32 %14, 1
  br label %17

16:                                               ; preds = %9
  br label %17

17:                                               ; preds = %16, %13
  %18 = phi i32 [ %15, %13 ], [ 8, %16 ]
  store i32 %18, ptr %2, align 4
  %19 = load ptr, ptr @TopTransactionContext, align 8
  %20 = load i32, ptr %2, align 4
  %21 = sext i32 %20 to i64
  %22 = mul i64 %21, 40
  %23 = call ptr @MemoryContextAlloc(ptr noundef %19, i64 noundef %22)
  store ptr %23, ptr getelementptr inbounds nuw (%struct.AfterTriggersData, ptr @afterTriggers, i32 0, i32 4), align 8
  %24 = load i32, ptr %2, align 4
  store i32 %24, ptr getelementptr inbounds nuw (%struct.AfterTriggersData, ptr @afterTriggers, i32 0, i32 6), align 4
  call void @llvm.lifetime.end.p0(i64 4, ptr %2) #12
  br label %46

25:                                               ; preds = %0
  call void @llvm.lifetime.start.p0(i64 4, ptr %3) #12
  %26 = load i32, ptr getelementptr inbounds nuw (%struct.AfterTriggersData, ptr @afterTriggers, i32 0, i32 6), align 4
  store i32 %26, ptr %3, align 4
  call void @llvm.lifetime.start.p0(i64 4, ptr %4) #12
  %27 = load i32, ptr getelementptr inbounds nuw (%struct.AfterTriggersData, ptr @afterTriggers, i32 0, i32 5), align 8
  %28 = add i32 %27, 1
  %29 = load i32, ptr %3, align 4
  %30 = mul i32 %29, 2
  %31 = icmp sgt i32 %28, %30
  br i1 %31, label %32, label %35

32:                                               ; preds = %25
  %33 = load i32, ptr getelementptr inbounds nuw (%struct.AfterTriggersData, ptr @afterTriggers, i32 0, i32 5), align 8
  %34 = add i32 %33, 1
  br label %38

35:                                               ; preds = %25
  %36 = load i32, ptr %3, align 4
  %37 = mul i32 %36, 2
  br label %38

38:                                               ; preds = %35, %32
  %39 = phi i32 [ %34, %32 ], [ %37, %35 ]
  store i32 %39, ptr %4, align 4
  %40 = load ptr, ptr getelementptr inbounds nuw (%struct.AfterTriggersData, ptr @afterTriggers, i32 0, i32 4), align 8
  %41 = load i32, ptr %4, align 4
  %42 = sext i32 %41 to i64
  %43 = mul i64 %42, 40
  %44 = call ptr @repalloc(ptr noundef %40, i64 noundef %43)
  store ptr %44, ptr getelementptr inbounds nuw (%struct.AfterTriggersData, ptr @afterTriggers, i32 0, i32 4), align 8
  %45 = load i32, ptr %4, align 4
  store i32 %45, ptr getelementptr inbounds nuw (%struct.AfterTriggersData, ptr @afterTriggers, i32 0, i32 6), align 4
  call void @llvm.lifetime.end.p0(i64 4, ptr %4) #12
  call void @llvm.lifetime.end.p0(i64 4, ptr %3) #12
  br label %46

46:                                               ; preds = %38, %17
  br label %47

47:                                               ; preds = %51, %46
  %48 = load i32, ptr %1, align 4
  %49 = load i32, ptr getelementptr inbounds nuw (%struct.AfterTriggersData, ptr @afterTriggers, i32 0, i32 6), align 4
  %50 = icmp slt i32 %48, %49
  br i1 %50, label %51, label %71

51:                                               ; preds = %47
  call void @llvm.lifetime.start.p0(i64 8, ptr %5) #12
  %52 = load ptr, ptr getelementptr inbounds nuw (%struct.AfterTriggersData, ptr @afterTriggers, i32 0, i32 4), align 8
  %53 = load i32, ptr %1, align 4
  %54 = sext i32 %53 to i64
  %55 = getelementptr inbounds %struct.AfterTriggersQueryData, ptr %52, i64 %54
  store ptr %55, ptr %5, align 8
  %56 = load ptr, ptr %5, align 8
  %57 = getelementptr inbounds nuw %struct.AfterTriggersQueryData, ptr %56, i32 0, i32 0
  %58 = getelementptr inbounds nuw %struct.AfterTriggerEventList, ptr %57, i32 0, i32 0
  store ptr null, ptr %58, align 8
  %59 = load ptr, ptr %5, align 8
  %60 = getelementptr inbounds nuw %struct.AfterTriggersQueryData, ptr %59, i32 0, i32 0
  %61 = getelementptr inbounds nuw %struct.AfterTriggerEventList, ptr %60, i32 0, i32 1
  store ptr null, ptr %61, align 8
  %62 = load ptr, ptr %5, align 8
  %63 = getelementptr inbounds nuw %struct.AfterTriggersQueryData, ptr %62, i32 0, i32 0
  %64 = getelementptr inbounds nuw %struct.AfterTriggerEventList, ptr %63, i32 0, i32 2
  store ptr null, ptr %64, align 8
  %65 = load ptr, ptr %5, align 8
  %66 = getelementptr inbounds nuw %struct.AfterTriggersQueryData, ptr %65, i32 0, i32 1
  store ptr null, ptr %66, align 8
  %67 = load ptr, ptr %5, align 8
  %68 = getelementptr inbounds nuw %struct.AfterTriggersQueryData, ptr %67, i32 0, i32 2
  store ptr null, ptr %68, align 8
  %69 = load i32, ptr %1, align 4
  %70 = add i32 %69, 1
  store i32 %70, ptr %1, align 4
  call void @llvm.lifetime.end.p0(i64 8, ptr %5) #12
  br label %47, !llvm.loop !43

71:                                               ; preds = %47
  call void @llvm.lifetime.end.p0(i64 4, ptr %1) #12
  ret void
}

; Function Attrs: nounwind uwtable
define internal zeroext i1 @before_stmt_triggers_fired(i32 noundef %0, i32 noundef %1) #0 {
  %3 = alloca i32, align 4
  %4 = alloca i32, align 4
  %5 = alloca i8, align 1
  %6 = alloca ptr, align 8
  store i32 %0, ptr %3, align 4
  store i32 %1, ptr %4, align 4
  call void @llvm.lifetime.start.p0(i64 1, ptr %5) #12
  call void @llvm.lifetime.start.p0(i64 8, ptr %6) #12
  %7 = load i32, ptr getelementptr inbounds nuw (%struct.AfterTriggersData, ptr @afterTriggers, i32 0, i32 5), align 8
  %8 = icmp slt i32 %7, 0
  br i1 %8, label %9, label %20

9:                                                ; preds = %2
  br label %10

10:                                               ; preds = %9
  br i1 true, label %11, label %13

11:                                               ; preds = %10
  %12 = call zeroext i1 @errstart_cold(i32 noundef 21, ptr noundef null) #13
  br i1 %12, label %15, label %17

13:                                               ; preds = %10
  %14 = call zeroext i1 @errstart(i32 noundef 21, ptr noundef null)
  br i1 %14, label %15, label %17

15:                                               ; preds = %13, %11
  %16 = call i32 (ptr, ...) @errmsg_internal(ptr noundef @.str.91)
  call void @errfinish(ptr noundef @.str.2, i32 noundef 6501, ptr noundef @__func__.before_stmt_triggers_fired)
  br label %17

17:                                               ; preds = %15, %13, %11
  unreachable

18:                                               ; No predecessors!
  br label %19

19:                                               ; preds = %18
  br label %20

20:                                               ; preds = %19, %2
  %21 = load i32, ptr getelementptr inbounds nuw (%struct.AfterTriggersData, ptr @afterTriggers, i32 0, i32 5), align 8
  %22 = load i32, ptr getelementptr inbounds nuw (%struct.AfterTriggersData, ptr @afterTriggers, i32 0, i32 6), align 4
  %23 = icmp sge i32 %21, %22
  br i1 %23, label %24, label %25

24:                                               ; preds = %20
  call void @AfterTriggerEnlargeQueryState()
  br label %25

25:                                               ; preds = %24, %20
  %26 = load i32, ptr %3, align 4
  %27 = load i32, ptr %4, align 4
  %28 = call ptr @GetAfterTriggersTableData(i32 noundef %26, i32 noundef %27)
  store ptr %28, ptr %6, align 8
  %29 = load ptr, ptr %6, align 8
  %30 = getelementptr inbounds nuw %struct.AfterTriggersTableData, ptr %29, i32 0, i32 3
  %31 = load i8, ptr %30, align 1, !range !4, !noundef !5
  %32 = trunc i8 %31 to i1
  %33 = zext i1 %32 to i8
  store i8 %33, ptr %5, align 1
  %34 = load ptr, ptr %6, align 8
  %35 = getelementptr inbounds nuw %struct.AfterTriggersTableData, ptr %34, i32 0, i32 3
  store i8 1, ptr %35, align 1
  %36 = load i8, ptr %5, align 1, !range !4, !noundef !5
  %37 = trunc i8 %36 to i1
  call void @llvm.lifetime.end.p0(i64 8, ptr %6) #12
  call void @llvm.lifetime.end.p0(i64 1, ptr %5) #12
  ret i1 %37
}