; Function Attrs: nounwind uwtable
define internal fastcc zeroext i1 @before_stmt_triggers_fired(i32 noundef %0, i32 noundef range(i32 2, 5) %1) unnamed_addr #0 {
  %3 = load i32, ptr getelementptr inbounds nuw (i8, ptr @afterTriggers, i64 56), align 8
  %4 = icmp slt i32 %3, 0
  br i1 %4, label %5, label %8

5:                                                ; preds = %2
  %6 = tail call zeroext i1 @errstart_cold(i32 noundef 21, ptr noundef null) #17
  tail call void @llvm.assume(i1 %6)
  %7 = tail call i32 (ptr, ...) @errmsg_internal(ptr noundef nonnull @.str.91) #16
  tail call void @errfinish(ptr noundef nonnull @.str.2, i32 noundef 6501, ptr noundef nonnull @__func__.before_stmt_triggers_fired) #16
  unreachable

8:                                                ; preds = %2
  %9 = load i32, ptr getelementptr inbounds nuw (i8, ptr @afterTriggers, i64 60), align 4
  %.not = icmp slt i32 %3, %9
  br i1 %.not, label %AfterTriggerEnlargeQueryState.exit, label %10

10:                                               ; preds = %8
  %11 = icmp eq i32 %9, 0
  %12 = add nuw i32 %3, 1
  br i1 %11, label %13, label %19

13:                                               ; preds = %10
  %14 = tail call i32 @llvm.smax.i32(i32 %12, i32 8)
  %15 = load ptr, ptr @TopTransactionContext, align 8
  %16 = zext nneg i32 %14 to i64
  %17 = mul nuw nsw i64 %16, 40
  %18 = tail call ptr @MemoryContextAlloc(ptr noundef %15, i64 noundef %17) #16
  br label %26

19:                                               ; preds = %10
  %20 = shl i32 %9, 1
  %21 = tail call i32 @llvm.smax.i32(i32 %12, i32 %20)
  %22 = load ptr, ptr getelementptr inbounds nuw (i8, ptr @afterTriggers, i64 48), align 8
  %23 = sext i32 %21 to i64
  %24 = mul nsw i64 %23, 40
  %25 = tail call ptr @repalloc(ptr noundef %22, i64 noundef %24) #16
  br label %26

26:                                               ; preds = %19, %13
  %storemerge14.i = phi ptr [ %25, %19 ], [ %18, %13 ]
  %storemerge.i = phi i32 [ %21, %19 ], [ %14, %13 ]
  store ptr %storemerge14.i, ptr getelementptr inbounds nuw (i8, ptr @afterTriggers, i64 48), align 8
  store i32 %storemerge.i, ptr getelementptr inbounds nuw (i8, ptr @afterTriggers, i64 60), align 4
  %27 = icmp slt i32 %9, %storemerge.i
  br i1 %27, label %.lr.ph.preheader.i, label %AfterTriggerEnlargeQueryState.exit

.lr.ph.preheader.i:                               ; preds = %26
  %28 = sext i32 %9 to i64
  br label %.lr.ph.i

.lr.ph.i:                                         ; preds = %.lr.ph.i, %.lr.ph.preheader.i
  %indvars.iv.i = phi i64 [ %28, %.lr.ph.preheader.i ], [ %indvars.iv.next.i, %.lr.ph.i ]
  %29 = load ptr, ptr getelementptr inbounds nuw (i8, ptr @afterTriggers, i64 48), align 8
  %30 = getelementptr inbounds %struct.AfterTriggersQueryData, ptr %29, i64 %indvars.iv.i
  %indvars.iv.next.i = add nsw i64 %indvars.iv.i, 1
  tail call void @llvm.memset.p0.i64(ptr noundef nonnull align 8 dereferenceable(40) %30, i8 0, i64 40, i1 false)
  %31 = load i32, ptr getelementptr inbounds nuw (i8, ptr @afterTriggers, i64 60), align 4
  %32 = sext i32 %31 to i64
  %33 = icmp slt i64 %indvars.iv.next.i, %32
  br i1 %33, label %.lr.ph.i, label %AfterTriggerEnlargeQueryState.exit, !llvm.loop !28

AfterTriggerEnlargeQueryState.exit:               ; preds = %.lr.ph.i, %26, %8
  %34 = load ptr, ptr getelementptr inbounds nuw (i8, ptr @afterTriggers, i64 48), align 8
  %35 = load i32, ptr getelementptr inbounds nuw (i8, ptr @afterTriggers, i64 56), align 8
  %36 = sext i32 %35 to i64
  %37 = getelementptr inbounds %struct.AfterTriggersQueryData, ptr %34, i64 %36, i32 2
  %38 = load ptr, ptr %37, align 8
  %.not.i = icmp eq ptr %38, null
  br i1 %.not.i, label %._crit_edge.i, label %.lr.ph.i4

.lr.ph.i4:                                        ; preds = %AfterTriggerEnlargeQueryState.exit
  %39 = getelementptr inbounds nuw i8, ptr %38, i64 4
  %40 = load i32, ptr %39, align 4
  %41 = icmp sgt i32 %40, 0
  br i1 %41, label %.lr.ph35.i, label %._crit_edge.i

.lr.ph35.i:                                       ; preds = %.lr.ph.i4
  %42 = getelementptr inbounds nuw i8, ptr %38, i64 16
  %43 = load ptr, ptr %42, align 8
  %wide.trip.count.i = zext nneg i32 %40 to i64
  br label %44

44:                                               ; preds = %57, %.lr.ph35.i
  %indvars.iv.i5 = phi i64 [ 0, %.lr.ph35.i ], [ %indvars.iv.next.i6, %57 ]
  %45 = getelementptr inbounds nuw %union.ListCell, ptr %43, i64 %indvars.iv.i5
  %46 = load ptr, ptr %45, align 8
  %47 = load i32, ptr %46, align 8
  %48 = icmp eq i32 %47, %0
  br i1 %48, label %49, label %57

49:                                               ; preds = %44
  %50 = getelementptr inbounds nuw i8, ptr %46, i64 4
  %51 = load i32, ptr %50, align 4
  %52 = icmp eq i32 %51, %1
  br i1 %52, label %53, label %57

53:                                               ; preds = %49
  %54 = getelementptr inbounds nuw i8, ptr %46, i64 8
  %55 = load i8, ptr %54, align 8, !range !4, !noundef !5
  %56 = trunc nuw i8 %55 to i1
  br i1 %56, label %57, label %GetAfterTriggersTableData.exit

57:                                               ; preds = %53, %49, %44
  %indvars.iv.next.i6 = add nuw nsw i64 %indvars.iv.i5, 1
  %exitcond.not.i = icmp eq i64 %indvars.iv.next.i6, %wide.trip.count.i
  br i1 %exitcond.not.i, label %._crit_edge.i, label %44

._crit_edge.i:                                    ; preds = %57, %.lr.ph.i4, %AfterTriggerEnlargeQueryState.exit
  %58 = load ptr, ptr @CurTransactionContext, align 8
  %59 = load ptr, ptr @CurrentMemoryContext, align 8
  store ptr %58, ptr @CurrentMemoryContext, align 8
  %60 = tail call ptr @palloc0(i64 noundef 80) #16
  store i32 %0, ptr %60, align 8
  %61 = getelementptr inbounds nuw i8, ptr %60, i64 4
  store i32 %1, ptr %61, align 4
  %62 = load ptr, ptr %37, align 8
  %63 = tail call ptr @lappend(ptr noundef %62, ptr noundef nonnull %60) #16
  store ptr %63, ptr %37, align 8
  store ptr %59, ptr @CurrentMemoryContext, align 8
  br label %GetAfterTriggersTableData.exit

GetAfterTriggersTableData.exit:                   ; preds = %53, %._crit_edge.i
  %.1.i = phi ptr [ %60, %._crit_edge.i ], [ %46, %53 ]
  %64 = getelementptr inbounds nuw i8, ptr %.1.i, i64 9
  %65 = load i8, ptr %64, align 1, !range !4, !noundef !5
  %66 = trunc nuw i8 %65 to i1
  store i8 1, ptr %64, align 1
  ret i1 %66
}